; ModuleID = '11/385.c'
source_filename = "11/385.c"
target datalayout = "e-m:e-p270:32:32-p271:32:32-p272:64:64-i64:64-f80:128-n8:16:32:64-S128"
target triple = "x86_64-pc-linux-gnu"

@.str = private unnamed_addr constant [9 x i8] c"%d %d %d\00", align 1
@__const.main.n = private unnamed_addr constant [12 x i32] [i32 31, i32 29, i32 31, i32 30, i32 31, i32 30, i32 31, i32 31, i32 30, i32 31, i32 30, i32 31], align 16
@__const.main.n.1 = private unnamed_addr constant [12 x i32] [i32 31, i32 28, i32 31, i32 30, i32 31, i32 30, i32 31, i32 31, i32 30, i32 31, i32 30, i32 31], align 16
@.str.2 = private unnamed_addr constant [4 x i8] c"%d\0A\00", align 1

; Function Attrs: noinline nounwind uwtable
define dso_local i32 @main(i32 %0, i8** %1) #0 {
  %3 = alloca i32, align 4
  %4 = alloca i32, align 4
  %5 = alloca i8**, align 8
  %6 = alloca i32, align 4
  %7 = alloca i32, align 4
  %8 = alloca i32, align 4
  %9 = alloca i32, align 4
  %10 = alloca i32, align 4
  %11 = alloca [12 x i32], align 16
  %12 = alloca [12 x i32], align 16
  store i32 0, i32* %3, align 4
  store i32 %0, i32* %4, align 4
  store i8** %1, i8*** %5, align 8
  store i32 0, i32* %9, align 4
  %13 = call i32 (i8*, ...) @__isoc99_scanf(i8* getelementptr inbounds ([9 x i8], [9 x i8]* @.str, i64 0, i64 0), i32* %6, i32* %7, i32* %8)
  %14 = load i32, i32* %6, align 4
  %15 = srem i32 %14, 400
  %16 = icmp eq i32 %15, 0
  br i1 %16, label %28, label %17

17:                                               ; preds = %2
  %18 = load i32, i32* %6, align 4
  %19 = srem i32 %18, 100
  %20 = icmp ne i32 %19, 0
  %21 = zext i1 %20 to i32
  %22 = load i32, i32* %6, align 4
  %23 = srem i32 %22, 4
  %24 = icmp eq i32 %23, 0
  %25 = zext i1 %24 to i32
  %26 = and i32 %21, %25
  %27 = icmp ne i32 %26, 0
  br i1 %27, label %28, label %49

28:                                               ; preds = %17, %2
  %29 = bitcast [12 x i32]* %11 to i8*
  call void @llvm.memcpy.p0i8.p0i8.i64(i8* align 16 %29, i8* align 16 bitcast ([12 x i32]* @__const.main.n to i8*), i64 48, i1 false)
  store i32 0, i32* %10, align 4
  br label %30

30:                                               ; preds = %42, %28
  %31 = load i32, i32* %10, align 4
  %32 = add nsw i32 %31, 1
  %33 = load i32, i32* %7, align 4
  %34 = icmp slt i32 %32, %33
  br i1 %34, label %35, label %45

35:                                               ; preds = %30
  %36 = load i32, i32* %10, align 4
  %37 = sext i32 %36 to i64
  %38 = getelementptr inbounds [12 x i32], [12 x i32]* %11, i64 0, i64 %37
  %39 = load i32, i32* %38, align 4
  %40 = load i32, i32* %9, align 4
  %41 = add nsw i32 %40, %39
  store i32 %41, i32* %9, align 4
  br label %42

42:                                               ; preds = %35
  %43 = load i32, i32* %10, align 4
  %44 = add nsw i32 %43, 1
  store i32 %44, i32* %10, align 4
  br label %30

45:                                               ; preds = %30
  %46 = load i32, i32* %9, align 4
  %47 = load i32, i32* %8, align 4
  %48 = add nsw i32 %46, %47
  store i32 %48, i32* %9, align 4
  br label %70

49:                                               ; preds = %17
  %50 = bitcast [12 x i32]* %12 to i8*
  call void @llvm.memcpy.p0i8.p0i8.i64(i8* align 16 %50, i8* align 16 bitcast ([12 x i32]* @__const.main.n.1 to i8*), i64 48, i1 false)
  store i32 0, i32* %10, align 4
  br label %51

51:                                               ; preds = %63, %49
  %52 = load i32, i32* %10, align 4
  %53 = add nsw i32 %52, 1
  %54 = load i32, i32* %7, align 4
  %55 = icmp slt i32 %53, %54
  br i1 %55, label %56, label %66

56:                                               ; preds = %51
  %57 = load i32, i32* %10, align 4
  %58 = sext i32 %57 to i64
  %59 = getelementptr inbounds [12 x i32], [12 x i32]* %12, i64 0, i64 %58
  %60 = load i32, i32* %59, align 4
  %61 = load i32, i32* %9, align 4
  %62 = add nsw i32 %61, %60
  store i32 %62, i32* %9, align 4
  br label %63

63:                                               ; preds = %56
  %64 = load i32, i32* %10, align 4
  %65 = add nsw i32 %64, 1
  store i32 %65, i32* %10, align 4
  br label %51

66:                                               ; preds = %51
  %67 = load i32, i32* %9, align 4
  %68 = load i32, i32* %8, align 4
  %69 = add nsw i32 %67, %68
  store i32 %69, i32* %9, align 4
  br label %70

70:                                               ; preds = %66, %45
  %71 = load i32, i32* %9, align 4
  %72 = call i32 (i8*, ...) @printf(i8* getelementptr inbounds ([4 x i8], [4 x i8]* @.str.2, i64 0, i64 0), i32 %71)
  ret i32 0
}

declare dso_local i32 @__isoc99_scanf(i8*, ...) #1

; Function Attrs: argmemonly nounwind willreturn
declare void @llvm.memcpy.p0i8.p0i8.i64(i8* noalias nocapture writeonly, i8* noalias nocapture readonly, i64, i1 immarg) #2

declare dso_local i32 @printf(i8*, ...) #1


!llvm.module.flags = !{!0}
!llvm.ident = !{!1}

!0 = !{i32 1, !"wchar_size", i32 4}
!1 = !{!"clang version 10.0.0-4ubuntu1 "}
