; ModuleID = 'source-C-CXX/10/385.c'
source_filename = "source-C-CXX/10/385.c"
target datalayout = "e-m:e-p270:32:32-p271:32:32-p272:64:64-i64:64-f80:128-n8:16:32:64-S128"
target triple = "x86_64-pc-linux-gnu"

@.str = private unnamed_addr constant [9 x i8] c"%d %d %d\00", align 1
@__const.main.n = private unnamed_addr constant [12 x i32] [i32 31, i32 29, i32 31, i32 30, i32 31, i32 30, i32 31, i32 31, i32 30, i32 31, i32 30, i32 31], align 16
@__const.main.n.1 = private unnamed_addr constant [12 x i32] [i32 31, i32 28, i32 31, i32 30, i32 31, i32 30, i32 31, i32 31, i32 30, i32 31, i32 30, i32 31], align 16
@.str.2 = private unnamed_addr constant [4 x i8] c"%d\0A\00", align 1

; Function Attrs: nofree nounwind sspstrong uwtable
define dso_local i32 @main(i32 %0, i8** nocapture readnone %1) local_unnamed_addr #0 {
  %3 = alloca i32, align 4
  %4 = alloca i32, align 4
  %5 = alloca i32, align 4
  %6 = bitcast i32* %3 to i8*
  call void @llvm.lifetime.start.p0i8(i64 4, i8* nonnull %6) #4
  %7 = bitcast i32* %4 to i8*
  call void @llvm.lifetime.start.p0i8(i64 4, i8* nonnull %7) #4
  %8 = bitcast i32* %5 to i8*
  call void @llvm.lifetime.start.p0i8(i64 4, i8* nonnull %8) #4
  %9 = call i32 (i8*, ...) @__isoc99_scanf(i8* getelementptr inbounds ([9 x i8], [9 x i8]* @.str, i64 0, i64 0), i32* nonnull %3, i32* nonnull %4, i32* nonnull %5)
  %10 = load i32, i32* %3, align 4, !tbaa !5
  %11 = srem i32 %10, 400
  %12 = icmp eq i32 %11, 0
  br i1 %12, label %110, label %13

13:                                               ; preds = %2
  %14 = srem i32 %10, 100
  %15 = icmp ne i32 %14, 0
  %16 = and i32 %10, 3
  %17 = icmp eq i32 %16, 0
  %18 = and i1 %15, %17
  br i1 %18, label %110, label %19

19:                                               ; preds = %13
  %20 = load i32, i32* %4, align 4, !tbaa !5
  %21 = icmp sgt i32 %20, 1
  br i1 %21, label %22, label %221

22:                                               ; preds = %19
  %23 = add nsw i32 %20, -1
  %24 = zext i32 %23 to i64
  %25 = icmp ult i32 %23, 8
  br i1 %25, label %107, label %26

26:                                               ; preds = %22
  %27 = and i64 %24, 4294967288
  %28 = add nsw i64 %27, -8
  %29 = lshr exact i64 %28, 3
  %30 = add nuw nsw i64 %29, 1
  %31 = and i64 %30, 3
  %32 = icmp ult i64 %28, 24
  br i1 %32, label %78, label %33

33:                                               ; preds = %26
  %34 = and i64 %30, 4611686018427387900
  br label %35

35:                                               ; preds = %35, %33
  %36 = phi i64 [ 0, %33 ], [ %75, %35 ]
  %37 = phi <4 x i32> [ zeroinitializer, %33 ], [ %73, %35 ]
  %38 = phi <4 x i32> [ zeroinitializer, %33 ], [ %74, %35 ]
  %39 = phi i64 [ %34, %33 ], [ %76, %35 ]
  %40 = getelementptr inbounds [12 x i32], [12 x i32]* @__const.main.n.1, i64 0, i64 %36
  %41 = bitcast i32* %40 to <4 x i32>*
  %42 = load <4 x i32>, <4 x i32>* %41, align 16, !tbaa !5
  %43 = getelementptr inbounds i32, i32* %40, i64 4
  %44 = bitcast i32* %43 to <4 x i32>*
  %45 = load <4 x i32>, <4 x i32>* %44, align 16, !tbaa !5
  %46 = add <4 x i32> %42, %37
  %47 = add <4 x i32> %45, %38
  %48 = or i64 %36, 8
  %49 = getelementptr inbounds [12 x i32], [12 x i32]* @__const.main.n.1, i64 0, i64 %48
  %50 = bitcast i32* %49 to <4 x i32>*
  %51 = load <4 x i32>, <4 x i32>* %50, align 16, !tbaa !5
  %52 = getelementptr inbounds i32, i32* %49, i64 4
  %53 = bitcast i32* %52 to <4 x i32>*
  %54 = load <4 x i32>, <4 x i32>* %53, align 16, !tbaa !5
  %55 = add <4 x i32> %51, %46
  %56 = add <4 x i32> %54, %47
  %57 = or i64 %36, 16
  %58 = getelementptr inbounds [12 x i32], [12 x i32]* @__const.main.n.1, i64 0, i64 %57
  %59 = bitcast i32* %58 to <4 x i32>*
  %60 = load <4 x i32>, <4 x i32>* %59, align 16, !tbaa !5
  %61 = getelementptr inbounds i32, i32* %58, i64 4
  %62 = bitcast i32* %61 to <4 x i32>*
  %63 = load <4 x i32>, <4 x i32>* %62, align 16, !tbaa !5
  %64 = add <4 x i32> %60, %55
  %65 = add <4 x i32> %63, %56
  %66 = or i64 %36, 24
  %67 = getelementptr inbounds [12 x i32], [12 x i32]* @__const.main.n.1, i64 0, i64 %66
  %68 = bitcast i32* %67 to <4 x i32>*
  %69 = load <4 x i32>, <4 x i32>* %68, align 16, !tbaa !5
  %70 = getelementptr inbounds i32, i32* %67, i64 4
  %71 = bitcast i32* %70 to <4 x i32>*
  %72 = load <4 x i32>, <4 x i32>* %71, align 16, !tbaa !5
  %73 = add <4 x i32> %69, %64
  %74 = add <4 x i32> %72, %65
  %75 = add nuw i64 %36, 32
  %76 = add i64 %39, -4
  %77 = icmp eq i64 %76, 0
  br i1 %77, label %78, label %35, !llvm.loop !9

78:                                               ; preds = %35, %26
  %79 = phi <4 x i32> [ undef, %26 ], [ %73, %35 ]
  %80 = phi <4 x i32> [ undef, %26 ], [ %74, %35 ]
  %81 = phi i64 [ 0, %26 ], [ %75, %35 ]
  %82 = phi <4 x i32> [ zeroinitializer, %26 ], [ %73, %35 ]
  %83 = phi <4 x i32> [ zeroinitializer, %26 ], [ %74, %35 ]
  %84 = icmp eq i64 %31, 0
  br i1 %84, label %101, label %85

85:                                               ; preds = %78, %85
  %86 = phi i64 [ %98, %85 ], [ %81, %78 ]
  %87 = phi <4 x i32> [ %96, %85 ], [ %82, %78 ]
  %88 = phi <4 x i32> [ %97, %85 ], [ %83, %78 ]
  %89 = phi i64 [ %99, %85 ], [ %31, %78 ]
  %90 = getelementptr inbounds [12 x i32], [12 x i32]* @__const.main.n.1, i64 0, i64 %86
  %91 = bitcast i32* %90 to <4 x i32>*
  %92 = load <4 x i32>, <4 x i32>* %91, align 16, !tbaa !5
  %93 = getelementptr inbounds i32, i32* %90, i64 4
  %94 = bitcast i32* %93 to <4 x i32>*
  %95 = load <4 x i32>, <4 x i32>* %94, align 16, !tbaa !5
  %96 = add <4 x i32> %92, %87
  %97 = add <4 x i32> %95, %88
  %98 = add nuw i64 %86, 8
  %99 = add i64 %89, -1
  %100 = icmp eq i64 %99, 0
  br i1 %100, label %101, label %85, !llvm.loop !12

101:                                              ; preds = %85, %78
  %102 = phi <4 x i32> [ %79, %78 ], [ %96, %85 ]
  %103 = phi <4 x i32> [ %80, %78 ], [ %97, %85 ]
  %104 = add <4 x i32> %103, %102
  %105 = call i32 @llvm.vector.reduce.add.v4i32(<4 x i32> %104)
  %106 = icmp eq i64 %27, %24
  br i1 %106, label %221, label %107

107:                                              ; preds = %22, %101
  %108 = phi i64 [ 0, %22 ], [ %27, %101 ]
  %109 = phi i32 [ 0, %22 ], [ %105, %101 ]
  br label %213

110:                                              ; preds = %13, %2
  %111 = load i32, i32* %4, align 4, !tbaa !5
  %112 = icmp sgt i32 %111, 1
  br i1 %112, label %113, label %209

113:                                              ; preds = %110
  %114 = add nsw i32 %111, -1
  %115 = zext i32 %114 to i64
  %116 = icmp ult i32 %114, 8
  br i1 %116, label %198, label %117

117:                                              ; preds = %113
  %118 = and i64 %115, 4294967288
  %119 = add nsw i64 %118, -8
  %120 = lshr exact i64 %119, 3
  %121 = add nuw nsw i64 %120, 1
  %122 = and i64 %121, 3
  %123 = icmp ult i64 %119, 24
  br i1 %123, label %169, label %124

124:                                              ; preds = %117
  %125 = and i64 %121, 4611686018427387900
  br label %126

126:                                              ; preds = %126, %124
  %127 = phi i64 [ 0, %124 ], [ %166, %126 ]
  %128 = phi <4 x i32> [ zeroinitializer, %124 ], [ %164, %126 ]
  %129 = phi <4 x i32> [ zeroinitializer, %124 ], [ %165, %126 ]
  %130 = phi i64 [ %125, %124 ], [ %167, %126 ]
  %131 = getelementptr inbounds [12 x i32], [12 x i32]* @__const.main.n, i64 0, i64 %127
  %132 = bitcast i32* %131 to <4 x i32>*
  %133 = load <4 x i32>, <4 x i32>* %132, align 16, !tbaa !5
  %134 = getelementptr inbounds i32, i32* %131, i64 4
  %135 = bitcast i32* %134 to <4 x i32>*
  %136 = load <4 x i32>, <4 x i32>* %135, align 16, !tbaa !5
  %137 = add <4 x i32> %133, %128
  %138 = add <4 x i32> %136, %129
  %139 = or i64 %127, 8
  %140 = getelementptr inbounds [12 x i32], [12 x i32]* @__const.main.n, i64 0, i64 %139
  %141 = bitcast i32* %140 to <4 x i32>*
  %142 = load <4 x i32>, <4 x i32>* %141, align 16, !tbaa !5
  %143 = getelementptr inbounds i32, i32* %140, i64 4
  %144 = bitcast i32* %143 to <4 x i32>*
  %145 = load <4 x i32>, <4 x i32>* %144, align 16, !tbaa !5
  %146 = add <4 x i32> %142, %137
  %147 = add <4 x i32> %145, %138
  %148 = or i64 %127, 16
  %149 = getelementptr inbounds [12 x i32], [12 x i32]* @__const.main.n, i64 0, i64 %148
  %150 = bitcast i32* %149 to <4 x i32>*
  %151 = load <4 x i32>, <4 x i32>* %150, align 16, !tbaa !5
  %152 = getelementptr inbounds i32, i32* %149, i64 4
  %153 = bitcast i32* %152 to <4 x i32>*
  %154 = load <4 x i32>, <4 x i32>* %153, align 16, !tbaa !5
  %155 = add <4 x i32> %151, %146
  %156 = add <4 x i32> %154, %147
  %157 = or i64 %127, 24
  %158 = getelementptr inbounds [12 x i32], [12 x i32]* @__const.main.n, i64 0, i64 %157
  %159 = bitcast i32* %158 to <4 x i32>*
  %160 = load <4 x i32>, <4 x i32>* %159, align 16, !tbaa !5
  %161 = getelementptr inbounds i32, i32* %158, i64 4
  %162 = bitcast i32* %161 to <4 x i32>*
  %163 = load <4 x i32>, <4 x i32>* %162, align 16, !tbaa !5
  %164 = add <4 x i32> %160, %155
  %165 = add <4 x i32> %163, %156
  %166 = add nuw i64 %127, 32
  %167 = add i64 %130, -4
  %168 = icmp eq i64 %167, 0
  br i1 %168, label %169, label %126, !llvm.loop !14

169:                                              ; preds = %126, %117
  %170 = phi <4 x i32> [ undef, %117 ], [ %164, %126 ]
  %171 = phi <4 x i32> [ undef, %117 ], [ %165, %126 ]
  %172 = phi i64 [ 0, %117 ], [ %166, %126 ]
  %173 = phi <4 x i32> [ zeroinitializer, %117 ], [ %164, %126 ]
  %174 = phi <4 x i32> [ zeroinitializer, %117 ], [ %165, %126 ]
  %175 = icmp eq i64 %122, 0
  br i1 %175, label %192, label %176

176:                                              ; preds = %169, %176
  %177 = phi i64 [ %189, %176 ], [ %172, %169 ]
  %178 = phi <4 x i32> [ %187, %176 ], [ %173, %169 ]
  %179 = phi <4 x i32> [ %188, %176 ], [ %174, %169 ]
  %180 = phi i64 [ %190, %176 ], [ %122, %169 ]
  %181 = getelementptr inbounds [12 x i32], [12 x i32]* @__const.main.n, i64 0, i64 %177
  %182 = bitcast i32* %181 to <4 x i32>*
  %183 = load <4 x i32>, <4 x i32>* %182, align 16, !tbaa !5
  %184 = getelementptr inbounds i32, i32* %181, i64 4
  %185 = bitcast i32* %184 to <4 x i32>*
  %186 = load <4 x i32>, <4 x i32>* %185, align 16, !tbaa !5
  %187 = add <4 x i32> %183, %178
  %188 = add <4 x i32> %186, %179
  %189 = add nuw i64 %177, 8
  %190 = add i64 %180, -1
  %191 = icmp eq i64 %190, 0
  br i1 %191, label %192, label %176, !llvm.loop !15

192:                                              ; preds = %176, %169
  %193 = phi <4 x i32> [ %170, %169 ], [ %187, %176 ]
  %194 = phi <4 x i32> [ %171, %169 ], [ %188, %176 ]
  %195 = add <4 x i32> %194, %193
  %196 = call i32 @llvm.vector.reduce.add.v4i32(<4 x i32> %195)
  %197 = icmp eq i64 %118, %115
  br i1 %197, label %209, label %198

198:                                              ; preds = %113, %192
  %199 = phi i64 [ 0, %113 ], [ %118, %192 ]
  %200 = phi i32 [ 0, %113 ], [ %196, %192 ]
  br label %201

201:                                              ; preds = %198, %201
  %202 = phi i64 [ %207, %201 ], [ %199, %198 ]
  %203 = phi i32 [ %206, %201 ], [ %200, %198 ]
  %204 = getelementptr inbounds [12 x i32], [12 x i32]* @__const.main.n, i64 0, i64 %202
  %205 = load i32, i32* %204, align 4, !tbaa !5
  %206 = add nsw i32 %205, %203
  %207 = add nuw nsw i64 %202, 1
  %208 = icmp eq i64 %207, %115
  br i1 %208, label %209, label %201, !llvm.loop !16

209:                                              ; preds = %201, %192, %110
  %210 = phi i32 [ 0, %110 ], [ %196, %192 ], [ %206, %201 ]
  %211 = load i32, i32* %5, align 4, !tbaa !5
  %212 = add nsw i32 %211, %210
  br label %225

213:                                              ; preds = %107, %213
  %214 = phi i64 [ %219, %213 ], [ %108, %107 ]
  %215 = phi i32 [ %218, %213 ], [ %109, %107 ]
  %216 = getelementptr inbounds [12 x i32], [12 x i32]* @__const.main.n.1, i64 0, i64 %214
  %217 = load i32, i32* %216, align 4, !tbaa !5
  %218 = add nsw i32 %217, %215
  %219 = add nuw nsw i64 %214, 1
  %220 = icmp eq i64 %219, %24
  br i1 %220, label %221, label %213, !llvm.loop !18

221:                                              ; preds = %213, %101, %19
  %222 = phi i32 [ 0, %19 ], [ %105, %101 ], [ %218, %213 ]
  %223 = load i32, i32* %5, align 4, !tbaa !5
  %224 = add nsw i32 %223, %222
  br label %225

225:                                              ; preds = %221, %209
  %226 = phi i32 [ %212, %209 ], [ %224, %221 ]
  %227 = call i32 (i8*, ...) @printf(i8* nonnull dereferenceable(1) getelementptr inbounds ([4 x i8], [4 x i8]* @.str.2, i64 0, i64 0), i32 %226)
  call void @llvm.lifetime.end.p0i8(i64 4, i8* nonnull %8) #4
  call void @llvm.lifetime.end.p0i8(i64 4, i8* nonnull %7) #4
  call void @llvm.lifetime.end.p0i8(i64 4, i8* nonnull %6) #4
  ret i32 0
}

; Function Attrs: argmemonly mustprogress nofree nosync nounwind willreturn
declare void @llvm.lifetime.start.p0i8(i64 immarg, i8* nocapture) #1

; Function Attrs: nofree nounwind
declare noundef i32 @__isoc99_scanf(i8* nocapture noundef readonly, ...) local_unnamed_addr #2

; Function Attrs: argmemonly mustprogress nofree nosync nounwind willreturn
declare void @llvm.lifetime.end.p0i8(i64 immarg, i8* nocapture) #1

; Function Attrs: nofree nounwind
declare noundef i32 @printf(i8* nocapture noundef readonly, ...) local_unnamed_addr #2

; Function Attrs: nofree nosync nounwind readnone willreturn
declare i32 @llvm.vector.reduce.add.v4i32(<4 x i32>) #3


!llvm.module.flags = !{!0, !1, !2, !3}
!llvm.ident = !{!4}

!0 = !{i32 1, !"wchar_size", i32 4}
!1 = !{i32 7, !"PIC Level", i32 2}
!2 = !{i32 7, !"PIE Level", i32 2}
!3 = !{i32 7, !"uwtable", i32 1}
!4 = !{!"clang version 13.0.0"}
!5 = !{!6, !6, i64 0}
!6 = !{!"int", !7, i64 0}
!7 = !{!"omnipotent char", !8, i64 0}
!8 = !{!"Simple C/C++ TBAA"}
!9 = distinct !{!9, !10, !11}
!10 = !{!"llvm.loop.mustprogress"}
!11 = !{!"llvm.loop.isvectorized", i32 1}
!12 = distinct !{!12, !13}
!13 = !{!"llvm.loop.unroll.disable"}
!14 = distinct !{!14, !10, !11}
!15 = distinct !{!15, !13}
!16 = distinct !{!16, !10, !17, !11}
!17 = !{!"llvm.loop.unroll.runtime.disable"}
!18 = distinct !{!18, !10, !17, !11}
